; Function Attrs: nounwind uwtable
define dso_local ptr @llvm_emit_pointer_inbounds_gep_raw(ptr noundef %0, ptr noundef %1, ptr noundef %2, ptr noundef %3) local_unnamed_addr #0 {
  %5 = alloca ptr, align 8
  %6 = alloca ptr, align 8
  %7 = tail call i32 @LLVMIsConstant(ptr noundef %3) #10
  %.not = icmp eq i32 %7, 0
  br i1 %.not, label %19, label %8

8:                                                ; preds = %4
  %9 = tail call ptr @llvm_ptr_mult(ptr noundef %0, ptr noundef %3, ptr noundef %1)
  call void @llvm.lifetime.start.p0(i64 8, ptr nonnull %6)
  store ptr %9, ptr %6, align 8
  %10 = tail call i32 @LLVMIsConstant(ptr noundef %9) #10
  %.not.i = icmp eq i32 %10, 0
  br i1 %.not.i, label %13, label %11

11:                                               ; preds = %8
  %12 = tail call i32 @LLVMIsNull(ptr noundef %9) #10
  %.not10.i = icmp eq i32 %12, 0
  br i1 %.not10.i, label %13, label %llvm_emit_ptradd_inbounds_raw.exit

13:                                               ; preds = %11, %8
  %14 = getelementptr inbounds i8, ptr %0, i64 64
  %15 = load ptr, ptr %14, align 8
  %16 = getelementptr inbounds i8, ptr %0, i64 168
  %17 = load ptr, ptr %16, align 8
  %18 = call ptr @LLVMBuildInBoundsGEP2(ptr noundef %15, ptr noundef %17, ptr noundef %2, ptr noundef nonnull %6, i32 noundef 1, ptr noundef nonnull @.str.65) #10
  br label %llvm_emit_ptradd_inbounds_raw.exit

llvm_emit_ptradd_inbounds_raw.exit:               ; preds = %11, %13
  %.0.i = phi ptr [ %18, %13 ], [ %2, %11 ]
  call void @llvm.lifetime.end.p0(i64 8, ptr nonnull %6)
  br label %35

19:                                               ; preds = %4
  %20 = tail call i32 @llvm_abi_size(ptr noundef %0, ptr noundef %1) #10
  call void @llvm.lifetime.start.p0(i64 8, ptr nonnull %5)
  store ptr %3, ptr %5, align 8
  %21 = tail call i32 @LLVMIsConstant(ptr noundef %3) #10
  %.not.i12 = icmp eq i32 %21, 0
  br i1 %.not.i12, label %24, label %22

22:                                               ; preds = %19
  %23 = tail call i32 @LLVMIsNull(ptr noundef %3) #10
  %.not10.i13 = icmp eq i32 %23, 0
  br i1 %.not10.i13, label %24, label %llvm_emit_ptradd_inbounds_raw.exit15

24:                                               ; preds = %22, %19
  %25 = icmp eq i32 %20, 1
  %26 = getelementptr inbounds i8, ptr %0, i64 64
  %27 = load ptr, ptr %26, align 8
  %28 = getelementptr inbounds i8, ptr %0, i64 168
  %29 = load ptr, ptr %28, align 8
  br i1 %25, label %30, label %32

30:                                               ; preds = %24
  %31 = call ptr @LLVMBuildInBoundsGEP2(ptr noundef %27, ptr noundef %29, ptr noundef %2, ptr noundef nonnull %5, i32 noundef 1, ptr noundef nonnull @.str.65) #10
  br label %llvm_emit_ptradd_inbounds_raw.exit15

32:                                               ; preds = %24
  %33 = tail call ptr @LLVMArrayType(ptr noundef %29, i32 noundef %20) #10
  %34 = call ptr @LLVMBuildInBoundsGEP2(ptr noundef %27, ptr noundef %33, ptr noundef %2, ptr noundef nonnull %5, i32 noundef 1, ptr noundef nonnull @.str.66) #10
  br label %llvm_emit_ptradd_inbounds_raw.exit15

llvm_emit_ptradd_inbounds_raw.exit15:             ; preds = %22, %30, %32
  %.0.i14 = phi ptr [ %31, %30 ], [ %34, %32 ], [ %2, %22 ]
  call void @llvm.lifetime.end.p0(i64 8, ptr nonnull %5)
  br label %35

35:                                               ; preds = %llvm_emit_ptradd_inbounds_raw.exit15, %llvm_emit_ptradd_inbounds_raw.exit
  %.0 = phi ptr [ %.0.i, %llvm_emit_ptradd_inbounds_raw.exit ], [ %.0.i14, %llvm_emit_ptradd_inbounds_raw.exit15 ]
  ret ptr %.0
}